; Function Attrs: nounwind uwtable
define dso_local double @current_time(i32 noundef %0) local_unnamed_addr #0 {
  %2 = alloca %struct.timespec, align 8
  call void @llvm.lifetime.start.p0(i64 16, ptr nonnull %2) #16
  %3 = call i32 @clock_gettime(i32 noundef 0, ptr noundef nonnull %2) #16
  %4 = icmp slt i32 %3, 0
  br i1 %4, label %5, label %11

5:                                                ; preds = %1
  %6 = tail call ptr @__errno_location() #17
  %7 = load i32, ptr %6, align 4, !tbaa !4
  %8 = call i32 (ptr, ...) @printf(ptr noundef nonnull dereferenceable(1) @.str.78, ptr noundef nonnull @.str.113, ptr noundef nonnull @.str.79, i32 noundef 14994, i32 noundef %7, ptr noundef nonnull @.str.80)
  %9 = load ptr, ptr @stdout, align 8, !tbaa !14
  %10 = call i32 @fflush(ptr noundef %9)
  call void @_exit(i32 noundef 1) #18
  unreachable

11:                                               ; preds = %1
  %12 = load i64, ptr %2, align 8, !tbaa !16
  %13 = sitofp i64 %12 to double
  %14 = getelementptr inbounds nuw i8, ptr %2, i64 8
  %15 = load i64, ptr %14, align 8, !tbaa !19
  %16 = sitofp i64 %15 to double
  %17 = fdiv double %16, 1.000000e+09
  %18 = fadd double %17, %13
  call void @llvm.lifetime.end.p0(i64 16, ptr nonnull %2) #16
  ret double %18
}